; Function Attrs: mustprogress uwtable
define hidden void @_ZN10macro_util12insert_macroEP3appjP4exprS3_bbbRNS_16macro_candidatesE(ptr noundef nonnull readonly align 8 captures(none) dereferenceable(320) %0, ptr noundef readonly captures(none) %1, i32 noundef %2, ptr noundef %3, ptr noundef %4, i1 noundef zeroext %5, i1 noundef zeroext %6, i1 noundef zeroext %7, ptr noundef nonnull align 8 dereferenceable(64) %8) local_unnamed_addr #3 align 2 personality ptr @__gxx_personality_v0 {
  %10 = alloca %class.obj_ref, align 8
  %11 = alloca %class.obj_ref, align 8
  call void @llvm.lifetime.start.p0(i64 16, ptr nonnull %10) #22
  %12 = load ptr, ptr %0, align 8, !tbaa !108
  store ptr null, ptr %10, align 8, !tbaa !35
  %13 = getelementptr inbounds nuw i8, ptr %10, i64 8
  store ptr %12, ptr %13, align 8, !tbaa !3
  call void @llvm.lifetime.start.p0(i64 16, ptr nonnull %11) #22
  store ptr null, ptr %11, align 8, !tbaa !35
  %14 = getelementptr inbounds nuw i8, ptr %11, i64 8
  store ptr %12, ptr %14, align 8, !tbaa !3
  invoke void @_ZNK10macro_util14normalize_exprEP3appjP4exprR7obj_refIS2_11ast_managerE(ptr noundef nonnull align 8 dereferenceable(320) %0, ptr noundef %1, i32 noundef %2, ptr noundef %3, ptr noundef nonnull align 8 dereferenceable(16) %10)
          to label %15 unwind label %17

15:                                               ; preds = %9
  %.not = icmp eq ptr %4, null
  br i1 %.not, label %19, label %16

16:                                               ; preds = %15
  invoke void @_ZNK10macro_util14normalize_exprEP3appjP4exprR7obj_refIS2_11ast_managerE(ptr noundef nonnull align 8 dereferenceable(320) %0, ptr noundef %1, i32 noundef %2, ptr noundef nonnull %4, ptr noundef nonnull align 8 dereferenceable(16) %11)
          to label %._crit_edge unwind label %17

._crit_edge:                                      ; preds = %16
  %.pre = load ptr, ptr %11, align 8, !tbaa !35
  br label %27

17:                                               ; preds = %27, %16, %9
  %18 = landingpad { ptr, i32 }
          cleanup
  call void @_ZN7obj_refI4expr11ast_managerED2Ev(ptr noundef nonnull align 8 dereferenceable(16) %11) #22
  call void @llvm.lifetime.end.p0(i64 16, ptr nonnull %11) #22
  call void @_ZN7obj_refI4expr11ast_managerED2Ev(ptr noundef nonnull align 8 dereferenceable(16) %10) #22
  call void @llvm.lifetime.end.p0(i64 16, ptr nonnull %10) #22
  resume { ptr, i32 } %18

19:                                               ; preds = %15
  br i1 %7, label %27, label %20

20:                                               ; preds = %19
  %21 = load ptr, ptr %0, align 8, !tbaa !108
  %22 = getelementptr inbounds nuw i8, ptr %21, i64 856
  %23 = load ptr, ptr %22, align 8, !tbaa !223
  %.not.i = icmp eq ptr %23, null
  br i1 %.not.i, label %_ZN7obj_refI4expr11ast_managerEaSEPS0_.exit, label %_ZN11ast_manager7inc_refEP3ast.exit.i

_ZN11ast_manager7inc_refEP3ast.exit.i:            ; preds = %20
  %24 = getelementptr inbounds nuw i8, ptr %23, i64 8
  %25 = load i32, ptr %24, align 4, !tbaa !74
  %26 = add i32 %25, 1
  store i32 %26, ptr %24, align 4, !tbaa !74
  br label %_ZN7obj_refI4expr11ast_managerEaSEPS0_.exit

_ZN7obj_refI4expr11ast_managerEaSEPS0_.exit:      ; preds = %20, %_ZN11ast_manager7inc_refEP3ast.exit.i
  store ptr %23, ptr %11, align 8, !tbaa !35
  br label %27

27:                                               ; preds = %._crit_edge, %_ZN7obj_refI4expr11ast_managerEaSEPS0_.exit, %19
  %28 = phi ptr [ %.pre, %._crit_edge ], [ %23, %_ZN7obj_refI4expr11ast_managerEaSEPS0_.exit ], [ null, %19 ]
  %29 = getelementptr inbounds nuw i8, ptr %1, i64 16
  %30 = load ptr, ptr %29, align 8, !tbaa !50
  %31 = load ptr, ptr %10, align 8, !tbaa !35
  invoke void @_ZN10macro_util16macro_candidates6insertEP9func_declP4exprS4_bbb(ptr noundef nonnull align 8 dereferenceable(64) %8, ptr noundef %30, ptr noundef %31, ptr noundef %28, i1 noundef zeroext %5, i1 noundef zeroext %6, i1 noundef zeroext %7)
          to label %32 unwind label %17

32:                                               ; preds = %27
  %.not.i.i = icmp eq ptr %28, null
  br i1 %.not.i.i, label %_ZN7obj_refI4expr11ast_managerED2Ev.exit, label %33

33:                                               ; preds = %32
  %34 = load ptr, ptr %14, align 8, !tbaa !75
  %35 = getelementptr inbounds nuw i8, ptr %28, i64 8
  %36 = load i32, ptr %35, align 4, !tbaa !74
  %37 = add i32 %36, -1
  store i32 %37, ptr %35, align 4, !tbaa !74
  %38 = icmp eq i32 %37, 0
  br i1 %38, label %39, label %_ZN7obj_refI4expr11ast_managerED2Ev.exit

39:                                               ; preds = %33
  invoke void @_ZN11ast_manager11delete_nodeEP3ast(ptr noundef nonnull align 8 dereferenceable(976) %34, ptr noundef nonnull %28)
          to label %_ZN7obj_refI4expr11ast_managerED2Ev.exit unwind label %40

40:                                               ; preds = %39
  %41 = landingpad { ptr, i32 }
          catch ptr null
  %42 = extractvalue { ptr, i32 } %41, 0
  tail call void @__clang_call_terminate(ptr %42) #23
  unreachable

_ZN7obj_refI4expr11ast_managerED2Ev.exit:         ; preds = %32, %33, %39
  call void @llvm.lifetime.end.p0(i64 16, ptr nonnull %11) #22
  %.not.i.i15 = icmp eq ptr %31, null
  br i1 %.not.i.i15, label %_ZN7obj_refI4expr11ast_managerED2Ev.exit16, label %43

43:                                               ; preds = %_ZN7obj_refI4expr11ast_managerED2Ev.exit
  %44 = load ptr, ptr %13, align 8, !tbaa !75
  %45 = getelementptr inbounds nuw i8, ptr %31, i64 8
  %46 = load i32, ptr %45, align 4, !tbaa !74
  %47 = add i32 %46, -1
  store i32 %47, ptr %45, align 4, !tbaa !74
  %48 = icmp eq i32 %47, 0
  br i1 %48, label %49, label %_ZN7obj_refI4expr11ast_managerED2Ev.exit16

49:                                               ; preds = %43
  invoke void @_ZN11ast_manager11delete_nodeEP3ast(ptr noundef nonnull align 8 dereferenceable(976) %44, ptr noundef nonnull %31)
          to label %_ZN7obj_refI4expr11ast_managerED2Ev.exit16 unwind label %50

50:                                               ; preds = %49
  %51 = landingpad { ptr, i32 }
          catch ptr null
  %52 = extractvalue { ptr, i32 } %51, 0
  tail call void @__clang_call_terminate(ptr %52) #23
  unreachable

_ZN7obj_refI4expr11ast_managerED2Ev.exit16:       ; preds = %_ZN7obj_refI4expr11ast_managerED2Ev.exit, %43, %49
  call void @llvm.lifetime.end.p0(i64 16, ptr nonnull %10) #22
  ret void
}